MPASM 5.87                          MAIN.ASM   7-18-2020  19:11:46         PAGE  1


LOC  OBJECT CODE     LINE SOURCE TEXT
  VALUE

                      00001 ;      __CONFIG _FOSC_INTOSC & _BOREN_ON & _WDTE_OFF & _PWRTE_ON & _MCLRE_OFF & _CP_OFF & _LVP_OFF & _LP
                            BOR_ON & _BORV_HI & _WRT_OFF
2007   3AA6           00002       __CONFIG _FOSC_INTOSC & _BOREN_ON & _WDTE_OFF & _PWRTE_OFF & _MCLRE_OFF & _CP_OFF & _LVP_OFF & _LP
                            BOR_ON & _BORV_HI & _WRT_OFF
                      00003 #include "p10f322.inc"
                      00001         LIST
                      00002 
                      00003 ;==========================================================================
                      00004 ; Build date : Jul 23 2018
                      00005 ;  MPASM PIC10F322 processor include
                      00006 ; 
                      00007 ;  (c) Copyright 1999-2018 Microchip Technology, All rights reserved
                      00008 ;==========================================================================
                      00009 
                      00705         LIST
                      00004      
                      00005 ;====================================================================
                      00006 ; Variables & Constants
                      00007 ;====================================================================
  00000000            00008 PWMIN       equ RA0 ; Port PWM
  00000001            00009 ZC          equ RA1 ; Port Zero Cross
  00000002            00010 OUT         equ RA2 ; Port MOC
  00000001            00011 FULL        equ 0x01; ON/OFF TRIAC
  00000002            00012 I           equ 0x02; INT ENABLE
                      00013 
  0087                00014             constant Period = 0x87;0x73 ; (100 Hz)
  0001                00015             constant C.input_mask = (1<<PWMIN)
  008F                00016             constant mindim = 0x8F 
  0003                00017             constant onfire = 0x03
  0050                00018             constant PWMperiod = 0x50 ;0x64 ;(383 Hz)
  0009                00019             constant FULLcount = 0x09 
                      00020 
                      00021            udata
0000                  00022 W_TEMP              res 1
0001                  00023 STATUS_TEMP         res 1
0002                  00024 PR2_TMP             res 1
0003                  00025 count               res 1
0004                  00026 TMP                 res 1
0005                  00027 FIRE                res 1    
0006                  00028 inputs.this_time    res 1           
0007                  00029 inputs.last_time    res 1
0008                  00030 edgeR.detected      res 1
0009                  00031 edgeF.detected      res 1           
                      00032 
                      00033 ;====================================================================
                      00034 ; RESET and INTERRUPT VECTORS
                      00035 ;====================================================================
                      00036         ORG     0x00            ; RESET VECTOR
0000   2???           00037         GOTO    START
                      00038         
                      00039         ORG     0x04            ; INTERRUPT VECTOR
0004   00??           00040         MOVWF   W_TEMP          ;Copy W to TEMP register
0005   0E03           00041         SWAPF   STATUS,W        ;Swap status to be saved into W
MPASM 5.87                          MAIN.ASM   7-18-2020  19:11:46         PAGE  2


LOC  OBJECT CODE     LINE SOURCE TEXT
  VALUE

                      00042                                 ;Swaps are used because they do 
                      00043                                 ;not affect the status bits
0006   00??           00044         MOVWF   STATUS_TEMP     ;Save status to bank zero STATUS_TEMP register
0007   1500           00045         BSF     FIRE,I
0008   190B           00046         BTFSC   INTCON,TMR0IF   ; INTERRUPT TMR0
0009   2???           00047         GOTO    TRIAC.OFF
000A   188C           00048         BTFSC   PIR1,TMR2IF     ; INTERRUPT TMR2
000B   2???           00049         GOTO    INTTMR2
000C   180B           00050         BTFSC   INTCON,IOCIF    ; INTERRUPT-ON-CHANGE
000D   2???           00051         GOTO    SIN.START
000E   2???           00052         GOTO    ENDOFINT
                      00053         
000F                  00054 TRIAC.OFF
000F   1C80           00055         BTFSS   FIRE,FULL
0010   1107           00056         BCF     LATA,OUT        
0011   110B           00057         BCF     INTCON,TMR0IF
0012   128B           00058         BCF     INTCON, TMR0IE
0013   1113           00059         BCF     T2CON,TMR2ON
0014   108C           00060         BCF     PIR1, TMR2IF
0015   0191           00061         CLRF    TMR2
0016   08??           00062         MOVFW   PR2_TMP
0017   1103           00063         BCF     STATUS,Z
0018   1003           00064         BCF     STATUS,C
0019   0212           00065         SUBWF   PR2,W
001A   1903           00066         BTFSC   STATUS,Z
001B   0A92           00067         INCF    PR2,F
001C   1803           00068         BTFSC   STATUS,C
001D   0392           00069         DECF    PR2,F
001E   1C03           00070         BTFSS   STATUS,C
001F   0A92           00071         INCF    PR2,F   
0020   2???           00072         GOTO    ENDOFINT        
                      00073 
0021                  00074 SIN.START
0021   1C9C           00075         BTFSS   IOCAF, ZC       ;INTERRUPT-ON-CHANGE PORTA 
0022   2???           00076         GOTO    ENDOFINT
0023   3002           00077         MOVLW   (1 << ZC)
0024   061C           00078         XORWF   IOCAF, W
0025   059C           00079         ANDWF   IOCAF, F
0026   1885           00080         BTFSC   PORTA, ZC
0027   2???           00081         GOTO    ENDOFINT        
0028   1513           00082         BSF     T2CON,TMR2ON
0029   3087           00083         MOVLW   Period
002A   0081           00084         MOVWF   TMR0
002B   110B           00085         BCF     INTCON, TMR0IF
002C   168B           00086         BSF     INTCON, TMR0IE
002D   2???           00087         GOTO    ENDOFINT
002E                  00088 INTTMR2
002E   1507           00089         BSF     LATA,OUT
002F   1113           00090         BCF     T2CON,TMR2ON
0030   108C           00091         BCF     PIR1, TMR2IF
                      00092 
0031                  00093 ENDOFINT
0031   0E??           00094         SWAPF   STATUS_TEMP,W   ;Swap STATUS_TEMP register into W
MPASM 5.87                          MAIN.ASM   7-18-2020  19:11:46         PAGE  3


LOC  OBJECT CODE     LINE SOURCE TEXT
  VALUE

                      00095                                 ;(sets bank to original state)
0032   0083           00096         MOVWF   STATUS          ;Move W into STATUS register
0033   0E??           00097         SWAPF   W_TEMP,F        ;Swap W_TEMP
0034   0E??           00098         SWAPF   W_TEMP,W        ;Swap W_TEMP into W
0035   0009           00099         retfie
                      00100       
                      00101 ;====================================================================
                      00102 ; CODE SEGMENT
                      00103 ;====================================================================
                      00104 
0036                  00105 START
                      00106 ; OSC 4MHz (default 8MHz)
0036   01??           00107     CLRF        TMP     
0037   3020           00108     MOVLW       b'00100000'
0038   00??           00109     MOVWF       TMP
0039   3070           00110     MOVLW       b'01110000'
003A   0410           00111     IORWF       OSCCON,W
003B   06??           00112     XORWF       TMP,W
003C   0090           00113     MOVWF       OSCCON
                      00114     
                      00115 ; INIT PORTA
003D   0185           00116     CLRF        PORTA 
003E   0187           00117     CLRF        LATA 
003F   0188           00118     CLRF        ANSELA ;Ports all digital
                      00119     
                      00120 ; After reset all ports as input
0040   1486           00121     bsf         TRISA,ZC ; Input port Zero Cross
0041   1406           00122     bsf         TRISA,PWMIN ; Input port PWM
0042   1106           00123     BCF         TRISA,OUT    
                      00124     ;BSF                WPUA,PWMIN
                      00125 
                      00126 ; TMR0 INIT    
0043   3085           00127     MOVLW       b'10000101' ;1:64 tmr0 prescaler, pullups disable   
0044   008E           00128     MOVWF       OPTION_REG
                      00129    
                      00130 ; TMR2 INIT
0045   3003           00131     MOVLW       b'00000011' ;1:64 tmr2 prescaler, 1:1 postscaler, tmr2 off
0046   0093           00132     MOVWF       T2CON
0047   308F           00133     MOVLW       mindim
0048   0092           00134     MOVWF       PR2
0049   148D           00135     BSF         PIE1,TMR2IE ; Interrup TMR2 Enable
                      00136 
                      00137 ; NCO INIT 
004A   3001           00138     MOVLW       b'00000001'   
004B   00AE           00139     MOVWF       NCO1CLK
004C   01AD           00140     CLRF        NCO1CON
004D   01A7           00141     CLRF        NCO1ACCL
004E   01A8           00142     CLRF        NCO1ACCH
004F   01A9           00143     CLRF        NCO1ACCU
0050   3050           00144     MOVLW       PWMperiod 
0051   00AA           00145     MOVWF       NCO1INCL
0052   17AD           00146     BSF         NCO1CON,N1EN ; NCO Enable
                      00147     
MPASM 5.87                          MAIN.ASM   7-18-2020  19:11:46         PAGE  4


LOC  OBJECT CODE     LINE SOURCE TEXT
  VALUE

                      00148 ;INTC   
0053   149B           00149     BSF         IOCAN,ZC ; Int for ZC negativ front
0054   158B           00150     BSF         INTCON,IOCIE ; Enable Interrupt-on-Change
0055   170B           00151     BSF         INTCON,PEIE ; Peripheral Interrupt
0056   178B           00152     BSF         INTCON,GIE ; Global Interrupt Enable
                      00153 
                      00154     ; INIT VARS
0057   01??           00155     CLRF        FIRE
0058   01??           00156     CLRF        TMP
0059   3009           00157     MOVLW       FULLcount
005A   00??           00158     MOVWF       count
                      00159     
                      00160 
005B                  00161 MAINLOOP
005B   1E0C           00162     BTFSS           PIR1,NCO1IF     
005C   2???           00163     goto            edge.rise
005D   1C05           00164     BTFSS           PORTA,PWMIN
Message[305]: Using default destination of 1 (file).
005E   0B??           00165     DECFSZ          count
005F   2???           00166     goto            clr.nco     
0060   1480           00167     BSF             FIRE,FULL
0061   01??           00168     CLRF            PR2_TMP
0062   3009           00169     MOVLW           FULLcount
0063   00??           00170     MOVWF           count    
0064                  00171 clr.nco
0064   120C           00172     BCF             PIR1,NCO1IF 
0065   01A7           00173     CLRF            NCO1ACCL
0066   01A8           00174     CLRF            NCO1ACCH
0067   01A9           00175     CLRF            NCO1ACCU    
0068   2???           00176     goto            MAINLOOP
                      00177     
0069                  00178 edge.rise
0069   0805           00179         movfw           PORTA                           ; load PORTA to Wreg            
006A   3901           00180         andlw           C.input_mask                    ; mask out I/O bits we're not interested in
006B   00??           00181         movwf           inputs.this_time                ; save result to variable
006C   06??           00182         xorwf           inputs.last_time,W              ; XOR last input value with current input value
006D   05??           00183         andwf           inputs.this_time,W              ; keep only bits that have changed from 0 to 1
006E   00??           00184         movwf           edgeR.detected                  ; save result to variable;
                      00185 
006F   08??           00186         movf            inputs.this_time,W              ; load result to variable
0070   06??           00187         xorwf           inputs.last_time,W              ; XOR last input value with current input value
0071   05??           00188         andwf           inputs.last_time,W              ; keep only bits that have changed from 0 to 1
0072   00??           00189         movwf           edgeF.detected
                      00190 
0073   08??           00191         movfw           inputs.this_time                ; copy input.this_time to 
0074   00??           00192         movwf           inputs.last_time
                      00193 
0075   1800           00194         BTFSC           edgeR.detected, PWMIN
0076   2???           00195         goto            tmr0.start
0077   1800           00196         BTFSC           edgeF.detected, PWMIN
0078   2???           00197         goto            tmr0.stop
0079   2???           00198         goto        MAINLOOP 
                      00199         
MPASM 5.87                          MAIN.ASM   7-18-2020  19:11:46         PAGE  5


LOC  OBJECT CODE     LINE SOURCE TEXT
  VALUE

007A                  00200 tmr0.start
007A   01A7           00201         CLRF        NCO1ACCL
007B   01A8           00202         CLRF        NCO1ACCH
007C   01A9           00203         CLRF        NCO1ACCU    
007D   2???           00204         goto        MAINLOOP
007E                  00205 tmr0.stop
007E   13AD           00206         BCF         NCO1CON,N1EN ;NCO Disable
007F   30F0           00207         MOVLW       b'11110000'
0080   0528           00208         ANDWF       NCO1ACCH,W
0081   0729           00209         ADDWF       NCO1ACCU,W
0082   1900           00210         BTFSC       FIRE,I
0083   2???           00211         goto        tmr0.stop.1
0084   0A8A           00212         INCF        PCLATH,F
0085   00??           00213         MOVWF       TMP
0086   0E??           00214         SWAPF       TMP,W
0087   2???           00215         call        Table
0088   00??           00216         MOVWF       PR2_TMP
0089   038A           00217         DECF        PCLATH,F    
008A   1080           00218         BCF         FIRE,FULL
                      00219         
008B                  00220 tmr0.stop.1
008B   1100           00221         BCF         FIRE,I
008C   3009           00222         MOVLW       FULLcount
008D   00??           00223         MOVWF       count
008E   01A7           00224         CLRF        NCO1ACCL
008F   01A8           00225         CLRF        NCO1ACCH
0090   01A9           00226         CLRF        NCO1ACCU    
0091   17AD           00227         BSF         NCO1CON,N1EN ;NCO Enable    
0092   2???           00228         goto        MAINLOOP
                      00229         
                      00230         ORG 0xFF
00FF                  00231 Table
00FF   0782           00232         ADDWF       PCL,F
0100   3400           00233         RETLW       0x00    ;0
0101   3400           00234         RETLW       0x00    ;1
0102   3400           00235         RETLW       0x00    ;2
0103   3400           00236         RETLW       0x00    ;3
0104   3400           00237         RETLW       0x00    ;4
0105   3400           00238         RETLW       0x00    ;5
0106   3400           00239         RETLW       0x00    ;6
0107   3401           00240         RETLW       0x01    ;7
0108   3402           00241         RETLW       0x02    ;8
0109   3403           00242         RETLW       0x03    ;9
010A   3404           00243         RETLW       0x04    ;A
010B   3405           00244         RETLW       0x05    ;B
010C   3406           00245         RETLW       0x06    ;C
010D   3407           00246         RETLW       0x07    ;D
010E   3408           00247         RETLW       0x08    ;E
010F   3409           00248         RETLW       0x09    ;F
                      00249         ; 1x
0110   340A           00250         RETLW       0x0A    ;0
0111   340B           00251         RETLW       0x0B    ;1
0112   340C           00252         RETLW       0x0C    ;2
MPASM 5.87                          MAIN.ASM   7-18-2020  19:11:46         PAGE  6


LOC  OBJECT CODE     LINE SOURCE TEXT
  VALUE

0113   340D           00253         RETLW       0x0D    ;3
0114   340E           00254         RETLW       0x0E    ;4
0115   340F           00255         RETLW       0x0F    ;5
0116   3410           00256         RETLW       0x10    ;6
0117   3411           00257         RETLW       0x11    ;7
0118   3412           00258         RETLW       0x12    ;8
0119   3413           00259         RETLW       0x13    ;9
011A   3414           00260         RETLW       0x14    ;A
011B   3415           00261         RETLW       0x15    ;B
011C   3416           00262         RETLW       0x16    ;C
011D   3417           00263         RETLW       0x17    ;D
011E   3418           00264         RETLW       0x18    ;E
011F   3419           00265         RETLW       0x19    ;F
                      00266         ;2
0120   341A           00267         RETLW       0x1A    ;0
0121   341B           00268         RETLW       0x1B    ;1
0122   341C           00269         RETLW       0x1C    ;2
0123   341D           00270         RETLW       0x1D    ;3
0124   341E           00271         RETLW       0x1E    ;4
0125   341F           00272         RETLW       0x1F    ;5
0126   3420           00273         RETLW       0x20    ;6
0127   3421           00274         RETLW       0x21    ;7
0128   3422           00275         RETLW       0x22    ;8
0129   3423           00276         RETLW       0x23    ;9
012A   3424           00277         RETLW       0x24    ;A
012B   3425           00278         RETLW       0x25    ;B
012C   3426           00279         RETLW       0x26    ;C
012D   3427           00280         RETLW       0x27    ;D
012E   3428           00281         RETLW       0x28    ;E
012F   3429           00282         RETLW       0x29    ;F
                      00283         ;3
0130   342A           00284         RETLW       0x2A    ;0
0131   342B           00285         RETLW       0x2B    ;1
0132   342C           00286         RETLW       0x2C    ;2
0133   342D           00287         RETLW       0x2D    ;3
0134   342E           00288         RETLW       0x2E    ;4
0135   342F           00289         RETLW       0x2F    ;5
0136   3430           00290         RETLW       0x30    ;6
0137   3431           00291         RETLW       0x31    ;7
0138   3432           00292         RETLW       0x32    ;8
0139   3433           00293         RETLW       0x33    ;9
013A   3434           00294         RETLW       0x34    ;A
013B   3435           00295         RETLW       0x35    ;B
013C   3436           00296         RETLW       0x36    ;C
013D   3437           00297         RETLW       0x37    ;D
013E   3438           00298         RETLW       0x38    ;E
013F   3439           00299         RETLW       0x39    ;F
                      00300         ;4
0140   343A           00301         RETLW       0x3A    ;0
0141   343B           00302         RETLW       0x3B    ;1
0142   343C           00303         RETLW       0x3C    ;2
0143   343D           00304         RETLW       0x3D    ;3
0144   343E           00305         RETLW       0x3E    ;4
MPASM 5.87                          MAIN.ASM   7-18-2020  19:11:46         PAGE  7


LOC  OBJECT CODE     LINE SOURCE TEXT
  VALUE

0145   343F           00306         RETLW       0x3F    ;5
0146   3440           00307         RETLW       0x40    ;6
0147   3441           00308         RETLW       0x41    ;7
0148   3442           00309         RETLW       0x42    ;8
0149   3443           00310         RETLW       0x43    ;9
014A   3444           00311         RETLW       0x44    ;A
014B   3445           00312         RETLW       0x45    ;B
014C   3446           00313         RETLW       0x46    ;C
014D   3446           00314         RETLW       0x46    ;D
014E   3447           00315         RETLW       0x47    ;E
014F   3447           00316         RETLW       0x47    ;F
                      00317         ;5
0150   3448           00318         RETLW       0x48    ;0
0151   3448           00319         RETLW       0x48    ;1
0152   3449           00320         RETLW       0x49    ;2
0153   3449           00321         RETLW       0x49    ;3
0154   344A           00322         RETLW       0x4A    ;4
0155   344A           00323         RETLW       0x4A    ;5
0156   344B           00324         RETLW       0x4B    ;6
0157   344B           00325         RETLW       0x4B    ;7
0158   344C           00326         RETLW       0x4C    ;8
0159   344C           00327         RETLW       0x4C    ;9
015A   344D           00328         RETLW       0x4D    ;A
015B   344D           00329         RETLW       0x4D    ;B
015C   344E           00330         RETLW       0x4E    ;C
015D   344E           00331         RETLW       0x4E    ;D
015E   344F           00332         RETLW       0x4F    ;E
015F   344F           00333         RETLW       0x4F    ;F
                      00334         ;6
0160   3450           00335         RETLW       0x50    ;0
0161   3450           00336         RETLW       0x50    ;1
0162   3451           00337         RETLW       0x51    ;2
0163   3451           00338         RETLW       0x51    ;3
0164   3452           00339         RETLW       0x52    ;4
0165   3452           00340         RETLW       0x52    ;5
0166   3453           00341         RETLW       0x53    ;6
0167   3453           00342         RETLW       0x53    ;7
0168   3454           00343         RETLW       0x54    ;8
0169   3454           00344         RETLW       0x54    ;9
016A   3455           00345         RETLW       0x55    ;A
016B   3455           00346         RETLW       0x55    ;B
016C   3456           00347         RETLW       0x56    ;C
016D   3456           00348         RETLW       0x56    ;D
016E   3457           00349         RETLW       0x57    ;E
016F   3457           00350         RETLW       0x57    ;F
                      00351         ;7
0170   3458           00352         RETLW       0x58    ;0
0171   3458           00353         RETLW       0x58    ;1
0172   3459           00354         RETLW       0x59    ;2
0173   3459           00355         RETLW       0x59    ;3
0174   345A           00356         RETLW       0x5A    ;4
0175   345A           00357         RETLW       0x5A    ;5
0176   345B           00358         RETLW       0x5B    ;6
MPASM 5.87                          MAIN.ASM   7-18-2020  19:11:46         PAGE  8


LOC  OBJECT CODE     LINE SOURCE TEXT
  VALUE

0177   345B           00359         RETLW       0x5B    ;7
0178   345C           00360         RETLW       0x5C    ;8
0179   345C           00361         RETLW       0x5C    ;9
017A   345D           00362         RETLW       0x5D    ;A
017B   345D           00363         RETLW       0x5D    ;B
017C   345E           00364         RETLW       0x5E    ;C
017D   345E           00365         RETLW       0x5E    ;D
017E   345F           00366         RETLW       0x5F    ;E
017F   345F           00367         RETLW       0x5F    ;F
                      00368         ;8
0180   3460           00369         RETLW       0x60    ;0
0181   3460           00370         RETLW       0x60    ;1
0182   3461           00371         RETLW       0x61    ;2
0183   3461           00372         RETLW       0x61    ;3
0184   3462           00373         RETLW       0x62    ;4
0185   3462           00374         RETLW       0x62    ;5
0186   3463           00375         RETLW       0x63    ;6
0187   3463           00376         RETLW       0x63    ;7
0188   3464           00377         RETLW       0x64    ;8
0189   3464           00378         RETLW       0x64    ;9
018A   3465           00379         RETLW       0x65    ;A
018B   3465           00380         RETLW       0x65    ;B
018C   3466           00381         RETLW       0x66    ;C
018D   3466           00382         RETLW       0x66    ;D
018E   3467           00383         RETLW       0x67    ;E
018F   3467           00384         RETLW       0x67    ;F
                      00385         ;9
0190   3468           00386         RETLW       0x68    ;0
0191   3468           00387         RETLW       0x68    ;1
0192   3469           00388         RETLW       0x69    ;2
0193   3469           00389         RETLW       0x69    ;3
0194   346A           00390         RETLW       0x6A    ;4
0195   346A           00391         RETLW       0x6A    ;5
0196   346B           00392         RETLW       0x6B    ;6
0197   346B           00393         RETLW       0x6B    ;7
0198   346C           00394         RETLW       0x6C    ;8
0199   346C           00395         RETLW       0x6C    ;9
019A   346D           00396         RETLW       0x6D    ;A
019B   346D           00397         RETLW       0x6D    ;B
019C   346E           00398         RETLW       0x6E    ;C
019D   346E           00399         RETLW       0x6E    ;D
019E   346F           00400         RETLW       0x6F    ;E
019F   346F           00401         RETLW       0x6F    ;F
                      00402         ;A
01A0   3470           00403         RETLW       0x70    ;0
01A1   3470           00404         RETLW       0x70    ;1
01A2   3471           00405         RETLW       0x71    ;2
01A3   3471           00406         RETLW       0x71    ;3
01A4   3472           00407         RETLW       0x72    ;4
01A5   3472           00408         RETLW       0x72    ;5
01A6   3473           00409         RETLW       0x73    ;6
01A7   3473           00410         RETLW       0x73    ;7
01A8   3474           00411         RETLW       0x74    ;8
MPASM 5.87                          MAIN.ASM   7-18-2020  19:11:46         PAGE  9


LOC  OBJECT CODE     LINE SOURCE TEXT
  VALUE

01A9   3474           00412         RETLW       0x74    ;9
01AA   3475           00413         RETLW       0x75    ;A
01AB   3475           00414         RETLW       0x75    ;B
01AC   3476           00415         RETLW       0x76    ;C
01AD   3476           00416         RETLW       0x76    ;D
01AE   3477           00417         RETLW       0x77    ;E
01AF   3477           00418         RETLW       0x77    ;F
                      00419         ;B
01B0   3478           00420         RETLW       0x78    ;0
01B1   3478           00421         RETLW       0x78    ;1
01B2   3479           00422         RETLW       0x79    ;2
01B3   3479           00423         RETLW       0x79    ;3
01B4   347A           00424         RETLW       0x7A    ;4
01B5   347A           00425         RETLW       0x7A    ;5
01B6   347B           00426         RETLW       0x7B    ;6
01B7   347B           00427         RETLW       0x7B    ;7
01B8   347B           00428         RETLW       0x7B    ;8
01B9   347C           00429         RETLW       0x7C    ;9
01BA   347C           00430         RETLW       0x7C    ;A
01BB   347C           00431         RETLW       0x7C    ;B
01BC   347D           00432         RETLW       0x7D    ;C
01BD   347D           00433         RETLW       0x7D    ;D
01BE   347D           00434         RETLW       0x7D    ;E
01BF   347E           00435         RETLW       0x7E    ;F
                      00436         ;C
01C0   347E           00437         RETLW       0x7E    ;0
01C1   347E           00438         RETLW       0x7E    ;1
01C2   347F           00439         RETLW       0x7F    ;2
01C3   347F           00440         RETLW       0x7F    ;3
01C4   347F           00441         RETLW       0x7F    ;4
01C5   3480           00442         RETLW       0x80    ;5
01C6   3480           00443         RETLW       0x80    ;6
01C7   3480           00444         RETLW       0x80    ;7
01C8   348F           00445         RETLW       0x8F    ;8
01C9   348F           00446         RETLW       0x8F    ;9
01CA   348F           00447         RETLW       0x8F    ;A
01CB   348F           00448         RETLW       0x8F    ;B
01CC   348F           00449         RETLW       0x8F    ;C
01CD   348F           00450         RETLW       0x8F    ;D
01CE   348F           00451         RETLW       0x8F    ;E
01CF   348F           00452         RETLW       0x8F    ;F
                      00453         ;D
01D0   348F           00454         RETLW       0x8F    ;0
01D1   348F           00455         RETLW       0x8F    ;1
01D2   348F           00456         RETLW       0x8F    ;2
01D3   348F           00457         RETLW       0x8F    ;3
01D4   348F           00458         RETLW       0x8F    ;4
01D5   348F           00459         RETLW       0x8F    ;5
01D6   348F           00460         RETLW       0x8F    ;6
01D7   348F           00461         RETLW       0x8F    ;7
01D8   348F           00462         RETLW       0x8F    ;8
01D9   348F           00463         RETLW       0x8F    ;9
01DA   348F           00464         RETLW       0x8F    ;A
MPASM 5.87                          MAIN.ASM   7-18-2020  19:11:46         PAGE 10


LOC  OBJECT CODE     LINE SOURCE TEXT
  VALUE

01DB   348F           00465         RETLW       0x8F    ;B
01DC   348F           00466         RETLW       0x8F    ;C
01DD   348F           00467         RETLW       0x8F    ;D
01DE   348F           00468         RETLW       0x8F    ;E
01DF   348F           00469         RETLW       0x8F    ;F
                      00470         ;E
01E0   348F           00471         RETLW       0x8F    ;0
01E1   348F           00472         RETLW       0x8F    ;1
01E2   348F           00473         RETLW       0x8F    ;2
01E3   348F           00474         RETLW       0x8F    ;3
01E4   348F           00475         RETLW       0x8F    ;4
01E5   348F           00476         RETLW       0x8F    ;5
01E6   348F           00477         RETLW       0x8F    ;6
01E7   348F           00478         RETLW       0x8F    ;7
01E8   348F           00479         RETLW       0x8F    ;8
01E9   348F           00480         RETLW       0x8F    ;9
01EA   348F           00481         RETLW       0x8F    ;A
01EB   348F           00482         RETLW       0x8F    ;B
01EC   348F           00483         RETLW       0x8F    ;C
01ED   348F           00484         RETLW       0x8F    ;D
01EE   348F           00485         RETLW       0x8F    ;E
01EF   348F           00486         RETLW       0x8F    ;F
                      00487         ;F
01F0   348F           00488         RETLW       0x8F    ;0
01F1   348F           00489         RETLW       0x8F    ;1
01F2   348F           00490         RETLW       0x8F    ;2
01F3   348F           00491         RETLW       0x8F    ;3
01F4   348F           00492         RETLW       0x8F    ;4
01F5   348F           00493         RETLW       0x8F    ;5
01F6   348F           00494         RETLW       0x8F    ;6
01F7   348F           00495         RETLW       0x8F    ;7
01F8   348F           00496         RETLW       0x8F    ;8
01F9   348F           00497         RETLW       0x8F    ;9
01FA   348F           00498         RETLW       0x8F    ;A
01FB   348F           00499         RETLW       0x8F    ;B
01FC   348F           00500         RETLW       0x8F    ;C
01FD   348F           00501         RETLW       0x8F    ;D
01FE   348F           00502         RETLW       0x8F    ;E
01FF   348F           00503         RETLW       0x8F    ;F          
                      00504 ;====================================================================
3AA6                  00505       END
MPASM 5.87                          MAIN.ASM   7-18-2020  19:11:46         PAGE 11


SYMBOL TABLE
  LABEL                             VALUE 

ADCON                             0000001F
ADCS0                             00000005
ADCS1                             00000006
ADCS2                             00000007
ADFVR0                            00000000
ADFVR1                            00000001
ADIE                              00000006
ADIF                              00000006
ADON                              00000000
ADRES                             0000001E
ANSA0                             00000000
ANSA1                             00000001
ANSA2                             00000002
ANSELA                            00000008
BORCON                            0000003F
BORFS                             00000006
BORRDY                            00000000
C                                 00000000
C.input_mask                      00000001
CFGS                              00000006
CHS0                              00000002
CHS1                              00000003
CHS2                              00000004
CLC1CON                           00000031
CLC1GLS0                          00000035
CLC1GLS1                          00000036
CLC1GLS2                          00000037
CLC1GLS3                          00000038
CLC1IE                            00000003
CLC1IF                            00000003
CLC1POL                           00000034
CLC1SEL0                          00000032
CLC1SEL1                          00000033
CLKRCON                           00000026
CLKROE                            00000006
CWG1CON0                          00000039
CWG1CON1                          0000003A
CWG1CON2                          0000003B
CWG1DBF                           0000003D
CWG1DBF0                          00000000
CWG1DBF1                          00000001
CWG1DBF2                          00000002
CWG1DBF3                          00000003
CWG1DBF4                          00000004
CWG1DBF5                          00000005
CWG1DBR                           0000003C
CWG1DBR0                          00000000
CWG1DBR1                          00000001
CWG1DBR2                          00000002
CWG1DBR3                          00000003
CWG1DBR4                          00000004
CWG1DBR5                          00000005
D1N                               00000000
MPASM 5.87                          MAIN.ASM   7-18-2020  19:11:46         PAGE 12


SYMBOL TABLE
  LABEL                             VALUE 

D1S0                              00000000
D1S1                              00000001
D1S2                              00000002
D1T                               00000001
D2N                               00000002
D2S0                              00000004
D2S1                              00000005
D2S2                              00000006
D2T                               00000003
D3N                               00000004
D3S0                              00000000
D3S1                              00000001
D3S2                              00000002
D3T                               00000005
D4N                               00000006
D4S0                              00000004
D4S1                              00000005
D4S2                              00000006
D4T                               00000007
DC                                00000001
ENDOFINT                          00000031
F                                 00000001
FIRE                              00000005
FREE                              00000004
FSR                               00000004
FULL                              00000001
FULLcount                         00000009
FVRCON                            0000001D
FVREN                             00000007
FVRRDY                            00000006
G1ARSEN                           00000006
G1ASDLA0                          00000004
G1ASDLA1                          00000005
G1ASDLB0                          00000006
G1ASDLB1                          00000007
G1ASDSCLC1                        00000001
G1ASDSFLT                         00000000
G1ASE                             00000007
G1CS0                             00000000
G1EN                              00000007
G1IS0                             00000000
G1IS1                             00000001
G1OEA                             00000005
G1OEB                             00000006
G1POL                             00000000
G1POLA                            00000003
G1POLB                            00000004
G2POL                             00000001
G3POL                             00000002
G4D1N                             00000000
G4D1T                             00000001
G4D2N                             00000002
G4D2T                             00000003
MPASM 5.87                          MAIN.ASM   7-18-2020  19:11:46         PAGE 13


SYMBOL TABLE
  LABEL                             VALUE 

G4D3N                             00000004
G4D3T                             00000005
G4D4N                             00000006
G4D4T                             00000007
G4POL                             00000003
GIE                               00000007
GO_NOT_DONE                       00000001
HFIOFR                            00000003
HFIOFS                            00000000
I                                 00000002
INDF                              00000000
INTCON                            0000000B
INTE                              00000004
INTEDG                            00000006
INTF                              00000001
INTTMR2                           0000002E
IOCAF                             0000001C
IOCAF0                            00000000
IOCAF1                            00000001
IOCAF2                            00000002
IOCAF3                            00000003
IOCAN                             0000001B
IOCAN0                            00000000
IOCAN1                            00000001
IOCAN2                            00000002
IOCAN3                            00000003
IOCAP                             0000001A
IOCAP0                            00000000
IOCAP1                            00000001
IOCAP2                            00000002
IOCAP3                            00000003
IOCIE                             00000003
IOCIF                             00000000
IRCF0                             00000004
IRCF1                             00000005
IRCF2                             00000006
IRP                               00000007
LATA                              00000007
LATA0                             00000000
LATA1                             00000001
LATA2                             00000002
LC1D1S0                           00000000
LC1D1S1                           00000001
LC1D1S2                           00000002
LC1D2S0                           00000004
LC1D2S1                           00000005
LC1D2S2                           00000006
LC1D3S0                           00000000
LC1D3S1                           00000001
LC1D3S2                           00000002
LC1D4S0                           00000004
LC1D4S1                           00000005
LC1D4S2                           00000006
MPASM 5.87                          MAIN.ASM   7-18-2020  19:11:46         PAGE 14


SYMBOL TABLE
  LABEL                             VALUE 

LC1EN                             00000007
LC1G1D1N                          00000000
LC1G1D1T                          00000001
LC1G1D2N                          00000002
LC1G1D2T                          00000003
LC1G1D3N                          00000004
LC1G1D3T                          00000005
LC1G1D4N                          00000006
LC1G1D4T                          00000007
LC1G1POL                          00000000
LC1G2D1N                          00000000
LC1G2D1T                          00000001
LC1G2D2N                          00000002
LC1G2D2T                          00000003
LC1G2D3N                          00000004
LC1G2D3T                          00000005
LC1G2D4N                          00000006
LC1G2D4T                          00000007
LC1G2POL                          00000001
LC1G3D1N                          00000000
LC1G3D1T                          00000001
LC1G3D2N                          00000002
LC1G3D2T                          00000003
LC1G3D3N                          00000004
LC1G3D3T                          00000005
LC1G3D4N                          00000006
LC1G3D4T                          00000007
LC1G3POL                          00000002
LC1G4D1N                          00000000
LC1G4D1T                          00000001
LC1G4D2N                          00000002
LC1G4D2T                          00000003
LC1G4D3N                          00000004
LC1G4D3T                          00000005
LC1G4D4N                          00000006
LC1G4D4T                          00000007
LC1G4POL                          00000003
LC1INTN                           00000003
LC1INTP                           00000004
LC1MODE0                          00000000
LC1MODE1                          00000001
LC1MODE2                          00000002
LC1OE                             00000006
LC1OUT                            00000005
LC1POL                            00000007
LCEN                              00000007
LCINTN                            00000003
LCINTP                            00000004
LCMODE0                           00000000
LCMODE1                           00000001
LCMODE2                           00000002
LCOE                              00000006
LCOUT                             00000005
MPASM 5.87                          MAIN.ASM   7-18-2020  19:11:46         PAGE 15


SYMBOL TABLE
  LABEL                             VALUE 

LFIOFR                            00000001
LWLO                              00000005
MAINLOOP                          0000005B
N1CKS0                            00000000
N1CKS1                            00000001
N1EN                              00000007
N1OE                              00000006
N1OUT                             00000005
N1PFM                             00000000
N1POL                             00000004
N1PWS0                            00000005
N1PWS1                            00000006
N1PWS2                            00000007
NCO1ACC                           00000027
NCO1ACC0                          00000000
NCO1ACC1                          00000001
NCO1ACC10                         00000002
NCO1ACC11                         00000003
NCO1ACC12                         00000004
NCO1ACC13                         00000005
NCO1ACC14                         00000006
NCO1ACC15                         00000007
NCO1ACC16                         00000000
NCO1ACC17                         00000001
NCO1ACC18                         00000002
NCO1ACC19                         00000003
NCO1ACC2                          00000002
NCO1ACC3                          00000003
NCO1ACC4                          00000004
NCO1ACC5                          00000005
NCO1ACC6                          00000006
NCO1ACC7                          00000007
NCO1ACC8                          00000000
NCO1ACC9                          00000001
NCO1ACCH                          00000028
NCO1ACCL                          00000027
NCO1ACCU                          00000029
NCO1CLK                           0000002E
NCO1CON                           0000002D
NCO1IE                            00000004
NCO1IF                            00000004
NCO1INC                           0000002A
NCO1INC0                          00000000
NCO1INC1                          00000001
NCO1INC10                         00000002
NCO1INC11                         00000003
NCO1INC12                         00000004
NCO1INC13                         00000005
NCO1INC14                         00000006
NCO1INC15                         00000007
NCO1INC2                          00000002
NCO1INC3                          00000003
NCO1INC4                          00000004
MPASM 5.87                          MAIN.ASM   7-18-2020  19:11:46         PAGE 16


SYMBOL TABLE
  LABEL                             VALUE 

NCO1INC5                          00000005
NCO1INC6                          00000006
NCO1INC7                          00000007
NCO1INC8                          00000000
NCO1INC9                          00000001
NCO1INCH                          0000002B
NCO1INCL                          0000002A
NCO1INCU                          0000002C
NOT_BOR                           00000000
NOT_PD                            00000003
NOT_POR                           00000001
NOT_TO                            00000004
NOT_WPUEN                         00000007
OPTION_REG                        0000000E
OSCCON                            00000010
OUT                               00000002
PCL                               00000002
PCLATH                            0000000A
PCLH0                             00000000
PCON                              0000000F
PEIE                              00000006
PIE1                              0000000D
PIR1                              0000000C
PMADR                             00000020
PMADR8                            00000000
PMADRH                            00000021
PMADRL                            00000020
PMCON1                            00000024
PMCON2                            00000025
PMDAT                             00000022
PMDATH                            00000023
PMDATL                            00000022
POL                               00000007
PORTA                             00000005
PR2                               00000012
PR2_TMP                           00000002
PS0                               00000000
PS1                               00000001
PS2                               00000002
PSA                               00000003
PWM1CON                           00000016
PWM1CON0                          00000016
PWM1DCH                           00000015
PWM1DCH0                          00000000
PWM1DCH1                          00000001
PWM1DCH2                          00000002
PWM1DCH3                          00000003
PWM1DCH4                          00000004
PWM1DCH5                          00000005
PWM1DCH6                          00000006
PWM1DCH7                          00000007
PWM1DCL                           00000014
PWM1DCL0                          00000006
MPASM 5.87                          MAIN.ASM   7-18-2020  19:11:46         PAGE 17


SYMBOL TABLE
  LABEL                             VALUE 

PWM1DCL1                          00000007
PWM1EN                            00000007
PWM1OE                            00000006
PWM1OUT                           00000005
PWM1POL                           00000004
PWM2CON                           00000019
PWM2CON0                          00000019
PWM2DCH                           00000018
PWM2DCH0                          00000000
PWM2DCH1                          00000001
PWM2DCH2                          00000002
PWM2DCH3                          00000003
PWM2DCH4                          00000004
PWM2DCH5                          00000005
PWM2DCH6                          00000006
PWM2DCH7                          00000007
PWM2DCL                           00000017
PWM2DCL0                          00000006
PWM2DCL1                          00000007
PWM2EN                            00000007
PWM2OE                            00000006
PWM2OUT                           00000005
PWM2POL                           00000004
PWMIN                             00000000
PWMperiod                         00000050
Period                            00000087
RA0                               00000000
RA1                               00000001
RA2                               00000002
RA3                               00000003
RD                                00000000
RP0                               00000005
RP1                               00000006
SBOREN                            00000007
SIN.START                         00000021
START                             00000036
STATUS                            00000003
STATUS_TEMP                       00000001
SWDTEN                            00000000
T0CS                              00000005
T0SE                              00000004
T2CKPS0                           00000000
T2CKPS1                           00000001
T2CON                             00000013
TMP                               00000004
TMR0                              00000001
TMR0IE                            00000005
TMR0IF                            00000002
TMR2                              00000011
TMR2IE                            00000001
TMR2IF                            00000001
TMR2ON                            00000002
TOUTPS0                           00000003
MPASM 5.87                          MAIN.ASM   7-18-2020  19:11:46         PAGE 18


SYMBOL TABLE
  LABEL                             VALUE 

TOUTPS1                           00000004
TOUTPS2                           00000005
TOUTPS3                           00000006
TRIAC.OFF                         0000000F
TRISA                             00000006
TRISA0                            00000000
TRISA1                            00000001
TRISA2                            00000002
TSEN                              00000005
TSRNG                             00000004
Table                             000000FF
VREGCON                           0000003E
VREGPM0                           00000000
VREGPM1                           00000001
W                                 00000000
WDTCON                            00000030
WDTPS0                            00000001
WDTPS1                            00000002
WDTPS2                            00000003
WDTPS3                            00000004
WDTPS4                            00000005
WPUA                              00000009
WPUA0                             00000000
WPUA1                             00000001
WPUA2                             00000002
WPUA3                             00000003
WR                                00000001
WREN                              00000002
WRERR                             00000003
W_TEMP                            00000000
Z                                 00000002
ZC                                00000001
_BOREN_NSLEEP                     00003FFD
_BOREN_OFF                        00003FF9
_BOREN_ON                         00003FFF
_BOREN_SBODEN                     00003FFB
_BORV_24                          00003FFF
_BORV_27                          00003BFF
_BORV_HI                          00003BFF
_BORV_LO                          00003FFF
_CONFIG                           00002007
_CP_OFF                           00003FFF
_CP_ON                            00003F7F
_DEVID1                           00002006
_FOSC_EC                          00003FFF
_FOSC_INTOSC                      00003FFE
_IDLOC0                           00002000
_IDLOC1                           00002001
_IDLOC2                           00002002
_IDLOC3                           00002003
_LPBOR_OFF                        00003DFF
_LPBOR_ON                         00003FFF
_LVP_OFF                          00003EFF
MPASM 5.87                          MAIN.ASM   7-18-2020  19:11:46         PAGE 19


SYMBOL TABLE
  LABEL                             VALUE 

_LVP_ON                           00003FFF
_MCLRE_OFF                        00003FBF
_MCLRE_ON                         00003FFF
_PWRTE_OFF                        00003FFF
_PWRTE_ON                         00003FDF
_WDTE_NSLEEP                      00003FF7
_WDTE_OFF                         00003FE7
_WDTE_ON                          00003FFF
_WDTE_SWDTEN                      00003FEF
_WRT_ALL                          000027FF
_WRT_BOOT                         000037FF
_WRT_HALF                         00002FFF
_WRT_OFF                          00003FFF
__10F322                          00000001
clr.nco                           00000064
count                             00000003
edge.rise                         00000069
edgeF.detected                    00000009
edgeR.detected                    00000008
inputs.last_time                  00000007
inputs.this_time                  00000006
mindim                            0000008F
onfire                            00000003
tmr0.start                        0000007A
tmr0.stop                         0000007E
tmr0.stop.1                       0000008B

Errors   :     0
Warnings :     0 reported,     0 suppressed
Messages :     1 reported,     0 suppressed

